target datalayout = "e-m:e-p270:32:32-p271:32:32-p272:64:64-i64:64-i128:128-f80:128-n8:16:32:64-S128"
target triple = "x86_64-pc-linux-gnu"

@hf_docsis_rngrsp_trans_eq_data = internal global i32 0, align 4
@hf_docsis_rngrsp_trans_eq_enc_lowest_subc = internal global i32 0, align 4
@hf_docsis_rngrsp_trans_eq_enc_highest_subc = internal global i32 0, align 4
@hf_docsis_rngrsp_trans_eq_enc_coef_real = internal global i32 0, align 4
@hf_docsis_rngrsp_trans_eq_enc_coef_imag = internal global i32 0, align 4
@ett_docsis_rngrsp_tlv_transmit_equalization_encodings = internal global i32 0, align 4
@ett_docsis_rngrsp_tlv_transmit_equalization_encodings_coef = internal global i32 0, align 4
@.str.2158 = private unnamed_addr constant [19 x i8] c"real: %f, imag: %f\00", align 1
@.str.2159 = private unnamed_addr constant [16 x i8] c"Subcarrier %d: \00", align 1

; Function Attrs: null_pointer_is_valid sspstrong uwtable
define internal void @dissect_rngrsp_transmit_equalization_encodings_ofdma(ptr noundef %0, ptr noundef %1, i32 noundef %2, i16 noundef zeroext %3) #0 {
  %5 = alloca ptr, align 8
  %6 = alloca ptr, align 8
  %7 = alloca i32, align 4
  %8 = alloca i16, align 2
  %9 = alloca i16, align 2
  %10 = alloca ptr, align 8
  %11 = alloca ptr, align 8
  %12 = alloca ptr, align 8
  %13 = alloca i32, align 4
  %14 = alloca i32, align 4
  %15 = alloca i32, align 4
  store ptr %0, ptr %5, align 8
  store ptr %1, ptr %6, align 8
  store i32 %2, ptr %7, align 4
  store i16 %3, ptr %8, align 2
  call void @llvm.lifetime.start.p0(i64 2, ptr %9) #6
  call void @llvm.lifetime.start.p0(i64 8, ptr %10) #6
  call void @llvm.lifetime.start.p0(i64 8, ptr %11) #6
  call void @llvm.lifetime.start.p0(i64 8, ptr %12) #6
  call void @llvm.lifetime.start.p0(i64 4, ptr %13) #6
  %16 = load ptr, ptr %6, align 8
  %17 = load i32, ptr @hf_docsis_rngrsp_trans_eq_data, align 4
  %18 = load ptr, ptr %5, align 8
  %19 = load i32, ptr %7, align 4
  %20 = load i16, ptr %8, align 2
  %21 = zext i16 %20 to i32
  %22 = call ptr @proto_tree_add_item(ptr noundef %16, i32 noundef %17, ptr noundef %18, i32 noundef %19, i32 noundef %21, i32 noundef 0)
  store ptr %22, ptr %10, align 8
  %23 = load ptr, ptr %10, align 8
  %24 = load i32, ptr @ett_docsis_rngrsp_tlv_transmit_equalization_encodings, align 4
  %25 = call ptr @proto_item_add_subtree(ptr noundef %23, i32 noundef %24)
  store ptr %25, ptr %11, align 8
  %26 = load ptr, ptr %11, align 8
  %27 = load i32, ptr @hf_docsis_rngrsp_trans_eq_enc_lowest_subc, align 4
  %28 = load ptr, ptr %5, align 8
  %29 = load i32, ptr %7, align 4
  %30 = call ptr @proto_tree_add_item_ret_uint(ptr noundef %26, i32 noundef %27, ptr noundef %28, i32 noundef %29, i32 noundef 3, i32 noundef 0, ptr noundef %13)
  %31 = load ptr, ptr %11, align 8
  %32 = load i32, ptr @hf_docsis_rngrsp_trans_eq_enc_highest_subc, align 4
  %33 = load ptr, ptr %5, align 8
  %34 = load i32, ptr %7, align 4
  %35 = call ptr @proto_tree_add_item(ptr noundef %31, i32 noundef %32, ptr noundef %33, i32 noundef %34, i32 noundef 3, i32 noundef 0)
  store i16 3, ptr %9, align 2
  br label %36

36:                                               ; preds = %85, %4
  %37 = load i16, ptr %9, align 2
  %38 = zext i16 %37 to i32
  %39 = load i16, ptr %8, align 2
  %40 = zext i16 %39 to i32
  %41 = icmp slt i32 %38, %40
  br i1 %41, label %42, label %90

42:                                               ; preds = %36
  call void @llvm.lifetime.start.p0(i64 4, ptr %14) #6
  call void @llvm.lifetime.start.p0(i64 4, ptr %15) #6
  %43 = load ptr, ptr %11, align 8
  %44 = load ptr, ptr %5, align 8
  %45 = load i32, ptr %7, align 4
  %46 = load i16, ptr %9, align 2
  %47 = zext i16 %46 to i32
  %48 = add i32 %45, %47
  %49 = load i32, ptr @ett_docsis_rngrsp_tlv_transmit_equalization_encodings_coef, align 4
  %50 = load i32, ptr %13, align 4
  %51 = load i16, ptr %9, align 2
  %52 = zext i16 %51 to i32
  %53 = sub i32 %52, 3
  %54 = sdiv i32 %53, 4
  %55 = add i32 %50, %54
  %56 = call ptr (ptr, ptr, i32, i32, i32, ptr, ptr, ...) @proto_tree_add_subtree_format(ptr noundef %43, ptr noundef %44, i32 noundef %48, i32 noundef 4, i32 noundef %49, ptr noundef null, ptr noundef @.str.2159, i32 noundef %55)
  store ptr %56, ptr %12, align 8
  %57 = load ptr, ptr %12, align 8
  %58 = load i32, ptr @hf_docsis_rngrsp_trans_eq_enc_coef_real, align 4
  %59 = load ptr, ptr %5, align 8
  %60 = load i32, ptr %7, align 4
  %61 = load i16, ptr %9, align 2
  %62 = zext i16 %61 to i32
  %63 = add i32 %60, %62
  %64 = call ptr @proto_tree_add_item_ret_int(ptr noundef %57, i32 noundef %58, ptr noundef %59, i32 noundef %63, i32 noundef 2, i32 noundef 0, ptr noundef %14)
  %65 = load ptr, ptr %12, align 8
  %66 = load i32, ptr @hf_docsis_rngrsp_trans_eq_enc_coef_imag, align 4
  %67 = load ptr, ptr %5, align 8
  %68 = load i32, ptr %7, align 4
  %69 = load i16, ptr %9, align 2
  %70 = zext i16 %69 to i32
  %71 = add i32 %68, %70
  %72 = add i32 %71, 2
  %73 = call ptr @proto_tree_add_item_ret_int(ptr noundef %65, i32 noundef %66, ptr noundef %67, i32 noundef %72, i32 noundef 2, i32 noundef 0, ptr noundef %15)
  %74 = load ptr, ptr %12, align 8
  %75 = load i32, ptr %14, align 4
  %76 = trunc i32 %75 to i16
  %77 = sext i16 %76 to i32
  %78 = sitofp i32 %77 to double
  %79 = fdiv double %78, 1.638400e+04
  %80 = load i32, ptr %15, align 4
  %81 = trunc i32 %80 to i16
  %82 = sext i16 %81 to i32
  %83 = sitofp i32 %82 to double
  %84 = fdiv double %83, 1.638400e+04
  call void (ptr, ptr, ...) @proto_item_append_text(ptr noundef %74, ptr noundef @.str.2158, double noundef %79, double noundef %84)
  call void @llvm.lifetime.end.p0(i64 4, ptr %15) #6
  call void @llvm.lifetime.end.p0(i64 4, ptr %14) #6
  br label %85

85:                                               ; preds = %42
  %86 = load i16, ptr %9, align 2
  %87 = zext i16 %86 to i32
  %88 = add i32 %87, 4
  %89 = trunc i32 %88 to i16
  store i16 %89, ptr %9, align 2
  br label %36, !llvm.loop !24

90:                                               ; preds = %36
  call void @llvm.lifetime.end.p0(i64 4, ptr %13) #6
  call void @llvm.lifetime.end.p0(i64 8, ptr %12) #6
  call void @llvm.lifetime.end.p0(i64 8, ptr %11) #6
  call void @llvm.lifetime.end.p0(i64 8, ptr %10) #6
  call void @llvm.lifetime.end.p0(i64 2, ptr %9) #6
  ret void
}