; Function Attrs: null_pointer_is_valid sspstrong uwtable
define internal fastcc void @dissect_rngrsp_transmit_equalization_encodings_ofdma(ptr noundef nonnull %0, ptr noundef %1, i32 noundef %2, i16 noundef zeroext %3) unnamed_addr #0 {
  %5 = alloca i32, align 4
  %6 = alloca i32, align 4
  %7 = alloca i32, align 4
  call void @llvm.lifetime.start.p0(i64 4, ptr nonnull %5) #6
  %8 = load i32, ptr @hf_docsis_rngrsp_trans_eq_data, align 4
  %9 = zext i16 %3 to i32
  %10 = tail call ptr @proto_tree_add_item(ptr noundef %1, i32 noundef %8, ptr noundef nonnull %0, i32 noundef %2, i32 noundef %9, i32 noundef 0)
  %11 = load i32, ptr @ett_docsis_rngrsp_tlv_transmit_equalization_encodings, align 4
  %12 = tail call ptr @proto_item_add_subtree(ptr noundef %10, i32 noundef %11)
  %13 = load i32, ptr @hf_docsis_rngrsp_trans_eq_enc_lowest_subc, align 4
  %14 = call ptr @proto_tree_add_item_ret_uint(ptr noundef %12, i32 noundef %13, ptr noundef nonnull %0, i32 noundef %2, i32 noundef 3, i32 noundef 0, ptr noundef nonnull %5)
  %15 = load i32, ptr @hf_docsis_rngrsp_trans_eq_enc_highest_subc, align 4
  %16 = call ptr @proto_tree_add_item(ptr noundef %12, i32 noundef %15, ptr noundef nonnull %0, i32 noundef %2, i32 noundef 3, i32 noundef 0)
  %17 = icmp ugt i16 %3, 3
  br i1 %17, label %.lr.ph, label %._crit_edge

.lr.ph:                                           ; preds = %4, %.lr.ph
  %18 = phi i32 [ %40, %.lr.ph ], [ 3, %4 ]
  call void @llvm.lifetime.start.p0(i64 4, ptr nonnull %6) #6
  call void @llvm.lifetime.start.p0(i64 4, ptr nonnull %7) #6
  %19 = add i32 %18, %2
  %20 = load i32, ptr @ett_docsis_rngrsp_tlv_transmit_equalization_encodings_coef, align 4
  %21 = load i32, ptr %5, align 4
  %22 = add nsw i32 %18, -3
  %23 = sdiv i32 %22, 4
  %24 = add i32 %21, %23
  %25 = call ptr (ptr, ptr, i32, i32, i32, ptr, ptr, ...) @proto_tree_add_subtree_format(ptr noundef %12, ptr noundef nonnull %0, i32 noundef %19, i32 noundef 4, i32 noundef %20, ptr noundef null, ptr noundef nonnull @.str.2159, i32 noundef %24)
  %26 = load i32, ptr @hf_docsis_rngrsp_trans_eq_enc_coef_real, align 4
  %27 = call ptr @proto_tree_add_item_ret_int(ptr noundef %25, i32 noundef %26, ptr noundef nonnull %0, i32 noundef %19, i32 noundef 2, i32 noundef 0, ptr noundef nonnull %6)
  %28 = load i32, ptr @hf_docsis_rngrsp_trans_eq_enc_coef_imag, align 4
  %29 = add i32 %19, 2
  %30 = call ptr @proto_tree_add_item_ret_int(ptr noundef %25, i32 noundef %28, ptr noundef nonnull %0, i32 noundef %29, i32 noundef 2, i32 noundef 0, ptr noundef nonnull %7)
  %31 = load i32, ptr %6, align 4
  %sext = shl i32 %31, 16
  %32 = ashr exact i32 %sext, 16
  %33 = sitofp i32 %32 to double
  %34 = fmul double %33, 0x3F10000000000000
  %35 = load i32, ptr %7, align 4
  %sext28 = shl i32 %35, 16
  %36 = ashr exact i32 %sext28, 16
  %37 = sitofp i32 %36 to double
  %38 = fmul double %37, 0x3F10000000000000
  call void (ptr, ptr, ...) @proto_item_append_text(ptr noundef %25, ptr noundef nonnull @.str.2158, double noundef %34, double noundef %38)
  call void @llvm.lifetime.end.p0(i64 4, ptr nonnull %7) #6
  call void @llvm.lifetime.end.p0(i64 4, ptr nonnull %6) #6
  %39 = add nuw nsw i32 %18, 4
  %40 = and i32 %39, 65535
  %41 = icmp samesign ult i32 %40, %9
  br i1 %41, label %.lr.ph, label %._crit_edge, !llvm.loop !63

._crit_edge:                                      ; preds = %.lr.ph, %4
  call void @llvm.lifetime.end.p0(i64 4, ptr nonnull %5) #6
  ret void
}